target datalayout = "e-m:e-p270:32:32-p271:32:32-p272:64:64-i64:64-i128:128-f80:128-n8:16:32:64-S128"
target triple = "x86_64-unknown-linux-gnu"

%"class.llvh::StringRef" = type { ptr, i64 }
%"class.llvh::SmallPtrSet" = type { %"class.llvh::SmallPtrSetImpl.base", [4 x ptr] }
%"class.llvh::SmallPtrSetImpl.base" = type { %"class.llvh::SmallPtrSetImplBase.base" }
%"class.llvh::SmallPtrSetImplBase.base" = type <{ ptr, ptr, i32, i32, i32 }>
%"class.llvh::cl::Option" = type <{ ptr, i32, i16, [2 x i8], i32, i32, %"class.llvh::StringRef", %"class.llvh::StringRef", %"class.llvh::StringRef", ptr, %"class.llvh::SmallPtrSet", i8, [7 x i8] }>

; Function Attrs: mustprogress nounwind uwtable
define linkonce_odr noundef nonnull align 8 dereferenceable(8) ptr @_ZSt3maxImERKT_S2_S2_(ptr noundef nonnull align 8 dereferenceable(8) %__a, ptr noundef nonnull align 8 dereferenceable(8) %__b) #0 comdat {
entry:
  %retval = alloca ptr, align 8
  %__a.addr = alloca ptr, align 8
  %__b.addr = alloca ptr, align 8
  store ptr %__a, ptr %__a.addr, align 8
  store ptr %__b, ptr %__b.addr, align 8
  %0 = load ptr, ptr %__a.addr, align 8
  %1 = load i64, ptr %0, align 8
  %2 = load ptr, ptr %__b.addr, align 8
  %3 = load i64, ptr %2, align 8
  %cmp = icmp ult i64 %1, %3
  br i1 %cmp, label %if.then, label %if.end

if.then:                                          ; preds = %entry
  %4 = load ptr, ptr %__b.addr, align 8
  store ptr %4, ptr %retval, align 8
  br label %return

if.end:                                           ; preds = %entry
  %5 = load ptr, ptr %__a.addr, align 8
  store ptr %5, ptr %retval, align 8
  br label %return

return:                                           ; preds = %if.end, %if.then
  %6 = load ptr, ptr %retval, align 8
  ret ptr %6
}

; Function Attrs: mustprogress nounwind uwtable
define linkonce_odr hidden noundef zeroext i1 @_ZNK4llvh2cl6Option9hasArgStrEv(ptr noundef nonnull align 8 dereferenceable(145) %this) #0 comdat align 2 {
entry:
  %this.addr.i = alloca ptr, align 8
  %this.addr = alloca ptr, align 8
  store ptr %this, ptr %this.addr, align 8
  %this1 = load ptr, ptr %this.addr, align 8
  %ArgStr = getelementptr inbounds %"class.llvh::cl::Option", ptr %this1, i32 0, i32 6
  store ptr %ArgStr, ptr %this.addr.i, align 8
  %this1.i = load ptr, ptr %this.addr.i, align 8
  %Length.i = getelementptr inbounds %"class.llvh::StringRef", ptr %this1.i, i32 0, i32 1
  %0 = load i64, ptr %Length.i, align 8
  %cmp.i = icmp eq i64 %0, 0
  %lnot = xor i1 %cmp.i, true
  ret i1 %lnot
}

; Function Attrs: mustprogress nounwind uwtable
define hidden noundef i64 @_ZNK4llvh2cl19generic_parser_base14getOptionWidthERKNS0_6OptionE(ptr noundef nonnull align 8 dereferenceable(16) %this, ptr noundef nonnull align 8 dereferenceable(145) %O) unnamed_addr #0 align 2 {
entry:
  %this.addr.i33 = alloca ptr, align 8
  %this.addr.i30 = alloca ptr, align 8
  %this.addr.i = alloca ptr, align 8
  %retval = alloca i64, align 8
  %this.addr = alloca ptr, align 8
  %O.addr = alloca ptr, align 8
  %Size = alloca i64, align 8
  %i = alloca i32, align 4
  %e = alloca i32, align 4
  %ref.tmp = alloca i64, align 8
  %ref.tmp4 = alloca %"class.llvh::StringRef", align 8
  %BaseSize = alloca i64, align 8
  %i11 = alloca i32, align 4
  %e12 = alloca i32, align 4
  %ref.tmp19 = alloca i64, align 8
  %ref.tmp20 = alloca %"class.llvh::StringRef", align 8
  store ptr %this, ptr %this.addr, align 8
  store ptr %O, ptr %O.addr, align 8
  %this1 = load ptr, ptr %this.addr, align 8
  %0 = load ptr, ptr %O.addr, align 8
  %call = call noundef zeroext i1 @_ZNK4llvh2cl6Option9hasArgStrEv(ptr noundef nonnull align 8 dereferenceable(145) %0)
  br i1 %call, label %if.then, label %if.else

if.then:                                          ; preds = %entry
  %1 = load ptr, ptr %O.addr, align 8
  %ArgStr = getelementptr inbounds %"class.llvh::cl::Option", ptr %1, i32 0, i32 6
  store ptr %ArgStr, ptr %this.addr.i33, align 8
  %this1.i34 = load ptr, ptr %this.addr.i33, align 8
  %Length.i35 = getelementptr inbounds %"class.llvh::StringRef", ptr %this1.i34, i32 0, i32 1
  %2 = load i64, ptr %Length.i35, align 8
  %add = add i64 %2, 6
  store i64 %add, ptr %Size, align 8
  store i32 0, ptr %i, align 4
  %vtable = load ptr, ptr %this1, align 8
  %vfn = getelementptr inbounds ptr, ptr %vtable, i64 2
  %3 = load ptr, ptr %vfn, align 8
  %call3 = call noundef i32 %3(ptr noundef nonnull align 8 dereferenceable(16) %this1)
  store i32 %call3, ptr %e, align 4
  br label %for.cond

for.cond:                                         ; preds = %for.inc, %if.then
  %4 = load i32, ptr %i, align 4
  %5 = load i32, ptr %e, align 4
  %cmp = icmp ne i32 %4, %5
  br i1 %cmp, label %for.body, label %for.end

for.body:                                         ; preds = %for.cond
  %6 = load i32, ptr %i, align 4
  %vtable5 = load ptr, ptr %this1, align 8
  %vfn6 = getelementptr inbounds ptr, ptr %vtable5, i64 3
  %7 = load ptr, ptr %vfn6, align 8
  %call7 = call { ptr, i64 } %7(ptr noundef nonnull align 8 dereferenceable(16) %this1, i32 noundef %6)
  %8 = getelementptr inbounds { ptr, i64 }, ptr %ref.tmp4, i32 0, i32 0
  %9 = extractvalue { ptr, i64 } %call7, 0
  store ptr %9, ptr %8, align 8
  %10 = getelementptr inbounds { ptr, i64 }, ptr %ref.tmp4, i32 0, i32 1
  %11 = extractvalue { ptr, i64 } %call7, 1
  store i64 %11, ptr %10, align 8
  store ptr %ref.tmp4, ptr %this.addr.i30, align 8
  %this1.i31 = load ptr, ptr %this.addr.i30, align 8
  %Length.i32 = getelementptr inbounds %"class.llvh::StringRef", ptr %this1.i31, i32 0, i32 1
  %12 = load i64, ptr %Length.i32, align 8
  %add9 = add i64 %12, 8
  store i64 %add9, ptr %ref.tmp, align 8
  %call10 = call noundef nonnull align 8 dereferenceable(8) ptr @_ZSt3maxImERKT_S2_S2_(ptr noundef nonnull align 8 dereferenceable(8) %Size, ptr noundef nonnull align 8 dereferenceable(8) %ref.tmp)
  %13 = load i64, ptr %call10, align 8
  store i64 %13, ptr %Size, align 8
  br label %for.inc

for.inc:                                          ; preds = %for.body
  %14 = load i32, ptr %i, align 4
  %inc = add i32 %14, 1
  store i32 %inc, ptr %i, align 4
  br label %for.cond, !llvm.loop !30

for.end:                                          ; preds = %for.cond
  %15 = load i64, ptr %Size, align 8
  store i64 %15, ptr %retval, align 8
  br label %return

if.else:                                          ; preds = %entry
  store i64 0, ptr %BaseSize, align 8
  store i32 0, ptr %i11, align 4
  %vtable13 = load ptr, ptr %this1, align 8
  %vfn14 = getelementptr inbounds ptr, ptr %vtable13, i64 2
  %16 = load ptr, ptr %vfn14, align 8
  %call15 = call noundef i32 %16(ptr noundef nonnull align 8 dereferenceable(16) %this1)
  store i32 %call15, ptr %e12, align 4
  br label %for.cond16

for.cond16:                                       ; preds = %for.inc27, %if.else
  %17 = load i32, ptr %i11, align 4
  %18 = load i32, ptr %e12, align 4
  %cmp17 = icmp ne i32 %17, %18
  br i1 %cmp17, label %for.body18, label %for.end29

for.body18:                                       ; preds = %for.cond16
  %19 = load i32, ptr %i11, align 4
  %vtable21 = load ptr, ptr %this1, align 8
  %vfn22 = getelementptr inbounds ptr, ptr %vtable21, i64 3
  %20 = load ptr, ptr %vfn22, align 8
  %call23 = call { ptr, i64 } %20(ptr noundef nonnull align 8 dereferenceable(16) %this1, i32 noundef %19)
  %21 = getelementptr inbounds { ptr, i64 }, ptr %ref.tmp20, i32 0, i32 0
  %22 = extractvalue { ptr, i64 } %call23, 0
  store ptr %22, ptr %21, align 8
  %23 = getelementptr inbounds { ptr, i64 }, ptr %ref.tmp20, i32 0, i32 1
  %24 = extractvalue { ptr, i64 } %call23, 1
  store i64 %24, ptr %23, align 8
  store ptr %ref.tmp20, ptr %this.addr.i, align 8
  %this1.i = load ptr, ptr %this.addr.i, align 8
  %Length.i = getelementptr inbounds %"class.llvh::StringRef", ptr %this1.i, i32 0, i32 1
  %25 = load i64, ptr %Length.i, align 8
  %add25 = add i64 %25, 8
  store i64 %add25, ptr %ref.tmp19, align 8
  %call26 = call noundef nonnull align 8 dereferenceable(8) ptr @_ZSt3maxImERKT_S2_S2_(ptr noundef nonnull align 8 dereferenceable(8) %BaseSize, ptr noundef nonnull align 8 dereferenceable(8) %ref.tmp19)
  %26 = load i64, ptr %call26, align 8
  store i64 %26, ptr %BaseSize, align 8
  br label %for.inc27

for.inc27:                                        ; preds = %for.body18
  %27 = load i32, ptr %i11, align 4
  %inc28 = add i32 %27, 1
  store i32 %inc28, ptr %i11, align 4
  br label %for.cond16, !llvm.loop !31

for.end29:                                        ; preds = %for.cond16
  %28 = load i64, ptr %BaseSize, align 8
  store i64 %28, ptr %retval, align 8
  br label %return

return:                                           ; preds = %for.end29, %for.end
  %29 = load i64, ptr %retval, align 8
  ret i64 %29
}