; Function Attrs: mustprogress nounwind uwtable
define hidden noundef i64 @_ZNK4llvh2cl19generic_parser_base14getOptionWidthERKNS0_6OptionE(ptr noundef nonnull align 8 dereferenceable(16) %this, ptr nocapture noundef nonnull readonly align 8 dereferenceable(145) %O) unnamed_addr #0 align 2 {
entry:
  %Length.i.i = getelementptr inbounds i8, ptr %O, i64 32
  %0 = load i64, ptr %Length.i.i, align 8
  %cmp.i.i.not = icmp eq i64 %0, 0
  br i1 %cmp.i.i.not, label %if.else, label %if.then

if.then:                                          ; preds = %entry
  %add = add i64 %0, 6
  %vtable = load ptr, ptr %this, align 8
  %vfn = getelementptr inbounds i8, ptr %vtable, i64 16
  %1 = load ptr, ptr %vfn, align 8
  %call3 = tail call noundef i32 %1(ptr noundef nonnull align 8 dereferenceable(16) %this) #27
  %cmp.not16 = icmp eq i32 %call3, 0
  br i1 %cmp.not16, label %return, label %for.body

for.body:                                         ; preds = %if.then, %for.body
  %i.018 = phi i32 [ %inc, %for.body ], [ 0, %if.then ]
  %Size.017 = phi i64 [ %.sroa.speculated11, %for.body ], [ %add, %if.then ]
  %vtable5 = load ptr, ptr %this, align 8
  %vfn6 = getelementptr inbounds i8, ptr %vtable5, i64 24
  %2 = load ptr, ptr %vfn6, align 8
  %call7 = tail call { ptr, i64 } %2(ptr noundef nonnull align 8 dereferenceable(16) %this, i32 noundef %i.018) #27
  %3 = extractvalue { ptr, i64 } %call7, 1
  %add9 = add i64 %3, 8
  %.sroa.speculated11 = tail call i64 @llvm.umax.i64(i64 %Size.017, i64 %add9)
  %inc = add nuw i32 %i.018, 1
  %cmp.not = icmp eq i32 %inc, %call3
  br i1 %cmp.not, label %return, label %for.body, !llvm.loop !159

if.else:                                          ; preds = %entry
  %vtable13 = load ptr, ptr %this, align 8
  %vfn14 = getelementptr inbounds i8, ptr %vtable13, i64 16
  %4 = load ptr, ptr %vfn14, align 8
  %call15 = tail call noundef i32 %4(ptr noundef nonnull align 8 dereferenceable(16) %this) #27
  %cmp17.not19 = icmp eq i32 %call15, 0
  br i1 %cmp17.not19, label %return, label %for.body18

for.body18:                                       ; preds = %if.else, %for.body18
  %i11.021 = phi i32 [ %inc28, %for.body18 ], [ 0, %if.else ]
  %BaseSize.020 = phi i64 [ %.sroa.speculated, %for.body18 ], [ 0, %if.else ]
  %vtable21 = load ptr, ptr %this, align 8
  %vfn22 = getelementptr inbounds i8, ptr %vtable21, i64 24
  %5 = load ptr, ptr %vfn22, align 8
  %call23 = tail call { ptr, i64 } %5(ptr noundef nonnull align 8 dereferenceable(16) %this, i32 noundef %i11.021) #27
  %6 = extractvalue { ptr, i64 } %call23, 1
  %add25 = add i64 %6, 8
  %.sroa.speculated = tail call i64 @llvm.umax.i64(i64 %BaseSize.020, i64 %add25)
  %inc28 = add nuw i32 %i11.021, 1
  %cmp17.not = icmp eq i32 %inc28, %call15
  br i1 %cmp17.not, label %return, label %for.body18, !llvm.loop !160

return:                                           ; preds = %for.body, %for.body18, %if.then, %if.else
  %retval.0.in.sroa.speculated = phi i64 [ 0, %if.else ], [ %add, %if.then ], [ %.sroa.speculated, %for.body18 ], [ %.sroa.speculated11, %for.body ]
  ret i64 %retval.0.in.sroa.speculated
}